target datalayout = "e-m:e-p270:32:32-p271:32:32-p272:64:64-i64:64-i128:128-f80:128-n8:16:32:64-S128"
target triple = "x86_64-unknown-linux-gnu"

%"struct.std::atomic.64" = type { %"struct.std::__atomic_base.65" }
%"struct.std::__atomic_base.65" = type { i64 }
%"class.grpc_core::Orphanable" = type { ptr }
%"class.grpc_core::DualRefCounted" = type { %"class.grpc_core::Orphanable", %"struct.std::atomic.64" }
%"class.grpc_core::DebugLocation" = type { i8 }
%"class.grpc_core::WeakRefCountedPtr.412" = type { ptr }
%"class.grpc_core::SubchannelData<grpc_core::(anonymous namespace)::OldWeightedRoundRobin::WeightedRoundRobinSubchannelList, grpc_core::(anonymous namespace)::OldWeightedRoundRobin::WeightedRoundRobinSubchannelData>::Watcher" = type { %"class.grpc_core::SubchannelInterface::ConnectivityStateWatcherInterface", ptr, %"class.grpc_core::WeakRefCountedPtr.412" }
%"class.grpc_core::SubchannelInterface::ConnectivityStateWatcherInterface" = type { ptr }

@.str.33 = private unnamed_addr constant [151 x i8] c"generated/home/dtcxzyw/WorkSpace/Projects/compilers/llvm-opt-benchmark/bench/grpc/grpc/src/core/ext/filters/client_channel/lb_policy/subchannel_list.h\00", align 1
@.str.85 = private unnamed_addr constant [13 x i8] c"Watcher dtor\00", align 1

; Function Attrs: mustprogress nounwind uwtable
define internal noundef i64 @_ZN9grpc_core14DualRefCountedINS_12_GLOBAL__N_121OldWeightedRoundRobin32WeightedRoundRobinSubchannelListEE11MakeRefPairEjj(i32 noundef %strong, i32 noundef %weak) #5 align 2 {
entry:
  %strong.addr = alloca i32, align 4
  %weak.addr = alloca i32, align 4
  store i32 %strong, ptr %strong.addr, align 4
  store i32 %weak, ptr %weak.addr, align 4
  %0 = load i32, ptr %strong.addr, align 4
  %conv = zext i32 %0 to i64
  %shl = shl i64 %conv, 32
  %1 = load i32, ptr %weak.addr, align 4
  %conv1 = zext i32 %1 to i64
  %add = add i64 %shl, %conv1
  ret i64 %add
}

; Function Attrs: mustprogress nounwind uwtable
define internal noundef ptr @_ZSt10__exchangeIPN9grpc_core12_GLOBAL__N_121OldWeightedRoundRobin32WeightedRoundRobinSubchannelListERS4_ET_RS6_OT0_(ptr noundef nonnull align 8 dereferenceable(8) %__obj, ptr noundef nonnull align 8 dereferenceable(8) %__new_val) #5 {
entry:
  %__obj.addr = alloca ptr, align 8
  %__new_val.addr = alloca ptr, align 8
  %__old_val = alloca ptr, align 8
  store ptr %__obj, ptr %__obj.addr, align 8
  store ptr %__new_val, ptr %__new_val.addr, align 8
  %0 = load ptr, ptr %__obj.addr, align 8
  %1 = load ptr, ptr %0, align 8
  store ptr %1, ptr %__old_val, align 8
  %2 = load ptr, ptr %__new_val.addr, align 8
  %3 = load ptr, ptr %2, align 8
  %4 = load ptr, ptr %__obj.addr, align 8
  store ptr %3, ptr %4, align 8
  %5 = load ptr, ptr %__old_val, align 8
  ret ptr %5
}

; Function Attrs: mustprogress nounwind uwtable
define internal void @_ZN9grpc_core14DualRefCountedINS_12_GLOBAL__N_121OldWeightedRoundRobin32WeightedRoundRobinSubchannelListEE9WeakUnrefEv(ptr noundef nonnull align 8 dereferenceable(16) %this) #5 align 2 {
entry:
  %this.addr.i = alloca ptr, align 8
  %__i.addr.i = alloca i64, align 8
  %__m.addr.i = alloca i32, align 4
  %.atomictmp.i = alloca i64, align 8
  %atomic-temp.i = alloca i64, align 8
  %this.addr = alloca ptr, align 8
  %prev_ref_pair = alloca i64, align 8
  store ptr %this, ptr %this.addr, align 8
  %this1 = load ptr, ptr %this.addr, align 8
  %refs_ = getelementptr inbounds %"class.grpc_core::DualRefCounted", ptr %this1, i32 0, i32 1
  %call = call noundef i64 @_ZN9grpc_core14DualRefCountedINS_12_GLOBAL__N_121OldWeightedRoundRobin32WeightedRoundRobinSubchannelListEE11MakeRefPairEjj(i32 noundef 0, i32 noundef 1)
  store ptr %refs_, ptr %this.addr.i, align 8
  store i64 %call, ptr %__i.addr.i, align 8
  store i32 4, ptr %__m.addr.i, align 4
  %this1.i = load ptr, ptr %this.addr.i, align 8
  %0 = load i32, ptr %__m.addr.i, align 4
  %1 = load i64, ptr %__i.addr.i, align 8
  store i64 %1, ptr %.atomictmp.i, align 8
  switch i32 %0, label %monotonic.i [
    i32 1, label %acquire.i
    i32 2, label %acquire.i
    i32 3, label %release.i
    i32 4, label %acqrel.i
    i32 5, label %seqcst.i
  ]

monotonic.i:                                      ; preds = %entry
  %2 = load i64, ptr %.atomictmp.i, align 8
  %3 = atomicrmw sub ptr %this1.i, i64 %2 monotonic, align 8
  store i64 %3, ptr %atomic-temp.i, align 8
  br label %_ZNSt13__atomic_baseImE9fetch_subEmSt12memory_order.exit

acquire.i:                                        ; preds = %entry, %entry
  %4 = load i64, ptr %.atomictmp.i, align 8
  %5 = atomicrmw sub ptr %this1.i, i64 %4 acquire, align 8
  store i64 %5, ptr %atomic-temp.i, align 8
  br label %_ZNSt13__atomic_baseImE9fetch_subEmSt12memory_order.exit

release.i:                                        ; preds = %entry
  %6 = load i64, ptr %.atomictmp.i, align 8
  %7 = atomicrmw sub ptr %this1.i, i64 %6 release, align 8
  store i64 %7, ptr %atomic-temp.i, align 8
  br label %_ZNSt13__atomic_baseImE9fetch_subEmSt12memory_order.exit

acqrel.i:                                         ; preds = %entry
  %8 = load i64, ptr %.atomictmp.i, align 8
  %9 = atomicrmw sub ptr %this1.i, i64 %8 acq_rel, align 8
  store i64 %9, ptr %atomic-temp.i, align 8
  br label %_ZNSt13__atomic_baseImE9fetch_subEmSt12memory_order.exit

seqcst.i:                                         ; preds = %entry
  %10 = load i64, ptr %.atomictmp.i, align 8
  %11 = atomicrmw sub ptr %this1.i, i64 %10 seq_cst, align 8
  store i64 %11, ptr %atomic-temp.i, align 8
  br label %_ZNSt13__atomic_baseImE9fetch_subEmSt12memory_order.exit

_ZNSt13__atomic_baseImE9fetch_subEmSt12memory_order.exit: ; preds = %seqcst.i, %acqrel.i, %release.i, %acquire.i, %monotonic.i
  %12 = load i64, ptr %atomic-temp.i, align 8
  store i64 %12, ptr %prev_ref_pair, align 8
  %13 = load i64, ptr %prev_ref_pair, align 8
  %call3 = call noundef i64 @_ZN9grpc_core14DualRefCountedINS_12_GLOBAL__N_121OldWeightedRoundRobin32WeightedRoundRobinSubchannelListEE11MakeRefPairEjj(i32 noundef 0, i32 noundef 1)
  %cmp = icmp eq i64 %13, %call3
  br i1 %cmp, label %if.then, label %if.end

if.then:                                          ; preds = %_ZNSt13__atomic_baseImE9fetch_subEmSt12memory_order.exit
  %isnull = icmp eq ptr %this1, null
  br i1 %isnull, label %delete.end, label %delete.notnull

delete.notnull:                                   ; preds = %if.then
  %vtable = load ptr, ptr %this1, align 8
  %vfn = getelementptr inbounds ptr, ptr %vtable, i64 2
  %14 = load ptr, ptr %vfn, align 8
  call void %14(ptr noundef nonnull align 8 dereferenceable(96) %this1) #3
  br label %delete.end

delete.end:                                       ; preds = %delete.notnull, %if.then
  br label %if.end

if.end:                                           ; preds = %delete.end, %_ZNSt13__atomic_baseImE9fetch_subEmSt12memory_order.exit
  ret void
}

; Function Attrs: mustprogress nounwind uwtable
define internal void @_ZN9grpc_core14DualRefCountedINS_12_GLOBAL__N_121OldWeightedRoundRobin32WeightedRoundRobinSubchannelListEE9WeakUnrefERKNS_13DebugLocationEPKc(ptr noundef nonnull align 8 dereferenceable(16) %this, ptr noundef nonnull align 1 dereferenceable(1) %location, ptr noundef %reason) #5 align 2 {
entry:
  %this.addr.i = alloca ptr, align 8
  %__i.addr.i = alloca i64, align 8
  %__m.addr.i = alloca i32, align 4
  %.atomictmp.i = alloca i64, align 8
  %atomic-temp.i = alloca i64, align 8
  %this.addr = alloca ptr, align 8
  %location.addr = alloca ptr, align 8
  %reason.addr = alloca ptr, align 8
  %prev_ref_pair = alloca i64, align 8
  store ptr %this, ptr %this.addr, align 8
  store ptr %location, ptr %location.addr, align 8
  store ptr %reason, ptr %reason.addr, align 8
  %this1 = load ptr, ptr %this.addr, align 8
  %refs_ = getelementptr inbounds %"class.grpc_core::DualRefCounted", ptr %this1, i32 0, i32 1
  %call = call noundef i64 @_ZN9grpc_core14DualRefCountedINS_12_GLOBAL__N_121OldWeightedRoundRobin32WeightedRoundRobinSubchannelListEE11MakeRefPairEjj(i32 noundef 0, i32 noundef 1)
  store ptr %refs_, ptr %this.addr.i, align 8
  store i64 %call, ptr %__i.addr.i, align 8
  store i32 4, ptr %__m.addr.i, align 4
  %this1.i = load ptr, ptr %this.addr.i, align 8
  %0 = load i32, ptr %__m.addr.i, align 4
  %1 = load i64, ptr %__i.addr.i, align 8
  store i64 %1, ptr %.atomictmp.i, align 8
  switch i32 %0, label %monotonic.i [
    i32 1, label %acquire.i
    i32 2, label %acquire.i
    i32 3, label %release.i
    i32 4, label %acqrel.i
    i32 5, label %seqcst.i
  ]

monotonic.i:                                      ; preds = %entry
  %2 = load i64, ptr %.atomictmp.i, align 8
  %3 = atomicrmw sub ptr %this1.i, i64 %2 monotonic, align 8
  store i64 %3, ptr %atomic-temp.i, align 8
  br label %_ZNSt13__atomic_baseImE9fetch_subEmSt12memory_order.exit

acquire.i:                                        ; preds = %entry, %entry
  %4 = load i64, ptr %.atomictmp.i, align 8
  %5 = atomicrmw sub ptr %this1.i, i64 %4 acquire, align 8
  store i64 %5, ptr %atomic-temp.i, align 8
  br label %_ZNSt13__atomic_baseImE9fetch_subEmSt12memory_order.exit

release.i:                                        ; preds = %entry
  %6 = load i64, ptr %.atomictmp.i, align 8
  %7 = atomicrmw sub ptr %this1.i, i64 %6 release, align 8
  store i64 %7, ptr %atomic-temp.i, align 8
  br label %_ZNSt13__atomic_baseImE9fetch_subEmSt12memory_order.exit

acqrel.i:                                         ; preds = %entry
  %8 = load i64, ptr %.atomictmp.i, align 8
  %9 = atomicrmw sub ptr %this1.i, i64 %8 acq_rel, align 8
  store i64 %9, ptr %atomic-temp.i, align 8
  br label %_ZNSt13__atomic_baseImE9fetch_subEmSt12memory_order.exit

seqcst.i:                                         ; preds = %entry
  %10 = load i64, ptr %.atomictmp.i, align 8
  %11 = atomicrmw sub ptr %this1.i, i64 %10 seq_cst, align 8
  store i64 %11, ptr %atomic-temp.i, align 8
  br label %_ZNSt13__atomic_baseImE9fetch_subEmSt12memory_order.exit

_ZNSt13__atomic_baseImE9fetch_subEmSt12memory_order.exit: ; preds = %seqcst.i, %acqrel.i, %release.i, %acquire.i, %monotonic.i
  %12 = load i64, ptr %atomic-temp.i, align 8
  store i64 %12, ptr %prev_ref_pair, align 8
  %13 = load i64, ptr %prev_ref_pair, align 8
  %call3 = call noundef i64 @_ZN9grpc_core14DualRefCountedINS_12_GLOBAL__N_121OldWeightedRoundRobin32WeightedRoundRobinSubchannelListEE11MakeRefPairEjj(i32 noundef 0, i32 noundef 1)
  %cmp = icmp eq i64 %13, %call3
  br i1 %cmp, label %if.then, label %if.end

if.then:                                          ; preds = %_ZNSt13__atomic_baseImE9fetch_subEmSt12memory_order.exit
  %isnull = icmp eq ptr %this1, null
  br i1 %isnull, label %delete.end, label %delete.notnull

delete.notnull:                                   ; preds = %if.then
  %vtable = load ptr, ptr %this1, align 8
  %vfn = getelementptr inbounds ptr, ptr %vtable, i64 2
  %14 = load ptr, ptr %vfn, align 8
  call void %14(ptr noundef nonnull align 8 dereferenceable(96) %this1) #3
  br label %delete.end

delete.end:                                       ; preds = %delete.notnull, %if.then
  br label %if.end

if.end:                                           ; preds = %delete.end, %_ZNSt13__atomic_baseImE9fetch_subEmSt12memory_order.exit
  ret void
}

; Function Attrs: mustprogress nounwind uwtable
define internal noundef ptr @_ZSt8exchangeIPN9grpc_core12_GLOBAL__N_121OldWeightedRoundRobin32WeightedRoundRobinSubchannelListERS4_ET_RS6_OT0_(ptr noundef nonnull align 8 dereferenceable(8) %__obj, ptr noundef nonnull align 8 dereferenceable(8) %__new_val) #5 personality ptr @__gxx_personality_v0 {
entry:
  %__obj.addr = alloca ptr, align 8
  %__new_val.addr = alloca ptr, align 8
  store ptr %__obj, ptr %__obj.addr, align 8
  store ptr %__new_val, ptr %__new_val.addr, align 8
  %0 = load ptr, ptr %__obj.addr, align 8
  %1 = load ptr, ptr %__new_val.addr, align 8
  %call = invoke noundef ptr @_ZSt10__exchangeIPN9grpc_core12_GLOBAL__N_121OldWeightedRoundRobin32WeightedRoundRobinSubchannelListERS4_ET_RS6_OT0_(ptr noundef nonnull align 8 dereferenceable(8) %0, ptr noundef nonnull align 8 dereferenceable(8) %1)
          to label %invoke.cont unwind label %terminate.lpad

invoke.cont:                                      ; preds = %entry
  ret ptr %call

terminate.lpad:                                   ; preds = %entry
  %2 = landingpad { ptr, i32 }
          catch ptr null
  %3 = extractvalue { ptr, i32 } %2, 0
  call void @__clang_call_terminate(ptr %3) #18
  unreachable
}

; Function Attrs: noreturn nounwind uwtable
define linkonce_odr hidden void @__clang_call_terminate(ptr noundef %0) #10 comdat {
  %2 = call ptr @__cxa_begin_catch(ptr %0) #3
  call void @_ZSt9terminatev() #18
  unreachable
}

; Function Attrs: mustprogress nounwind uwtable
define linkonce_odr void @_ZN9grpc_core19SubchannelInterface33ConnectivityStateWatcherInterfaceD2Ev(ptr noundef nonnull align 8 dereferenceable(8) %this) unnamed_addr #5 comdat align 2 {
entry:
  %this.addr = alloca ptr, align 8
  store ptr %this, ptr %this.addr, align 8
  ret void
}

; Function Attrs: mustprogress nounwind uwtable
define internal void @_ZN9grpc_core17WeakRefCountedPtrINS_12_GLOBAL__N_121OldWeightedRoundRobin32WeightedRoundRobinSubchannelListEED2Ev(ptr noundef nonnull align 8 dereferenceable(8) %this) unnamed_addr #5 align 2 {
entry:
  %this.addr = alloca ptr, align 8
  store ptr %this, ptr %this.addr, align 8
  %this1 = load ptr, ptr %this.addr, align 8
  %value_ = getelementptr inbounds %"class.grpc_core::WeakRefCountedPtr.412", ptr %this1, i32 0, i32 0
  %0 = load ptr, ptr %value_, align 8
  %cmp = icmp ne ptr %0, null
  br i1 %cmp, label %if.then, label %if.end

if.then:                                          ; preds = %entry
  %value_2 = getelementptr inbounds %"class.grpc_core::WeakRefCountedPtr.412", ptr %this1, i32 0, i32 0
  %1 = load ptr, ptr %value_2, align 8
  call void @_ZN9grpc_core14DualRefCountedINS_12_GLOBAL__N_121OldWeightedRoundRobin32WeightedRoundRobinSubchannelListEE9WeakUnrefEv(ptr noundef nonnull align 8 dereferenceable(16) %1)
  br label %if.end

if.end:                                           ; preds = %if.then, %entry
  ret void
}

; Function Attrs: mustprogress uwtable
define internal void @_ZN9grpc_core17WeakRefCountedPtrINS_12_GLOBAL__N_121OldWeightedRoundRobin32WeightedRoundRobinSubchannelListEE5resetERKNS_13DebugLocationEPKcPS3_(ptr noundef nonnull align 8 dereferenceable(8) %this, ptr noundef nonnull align 1 dereferenceable(1) %location, ptr noundef %reason, ptr noundef %value) #4 align 2 {
entry:
  %this.addr = alloca ptr, align 8
  %location.addr = alloca ptr, align 8
  %reason.addr = alloca ptr, align 8
  %value.addr = alloca ptr, align 8
  %old_value = alloca ptr, align 8
  store ptr %this, ptr %this.addr, align 8
  store ptr %location, ptr %location.addr, align 8
  store ptr %reason, ptr %reason.addr, align 8
  store ptr %value, ptr %value.addr, align 8
  %this1 = load ptr, ptr %this.addr, align 8
  %value_ = getelementptr inbounds %"class.grpc_core::WeakRefCountedPtr.412", ptr %this1, i32 0, i32 0
  %call = call noundef ptr @_ZSt8exchangeIPN9grpc_core12_GLOBAL__N_121OldWeightedRoundRobin32WeightedRoundRobinSubchannelListERS4_ET_RS6_OT0_(ptr noundef nonnull align 8 dereferenceable(8) %value_, ptr noundef nonnull align 8 dereferenceable(8) %value.addr) #3
  store ptr %call, ptr %old_value, align 8
  %0 = load ptr, ptr %old_value, align 8
  %cmp = icmp ne ptr %0, null
  br i1 %cmp, label %if.then, label %if.end

if.then:                                          ; preds = %entry
  %1 = load ptr, ptr %old_value, align 8
  %2 = load ptr, ptr %location.addr, align 8
  %3 = load ptr, ptr %reason.addr, align 8
  call void @_ZN9grpc_core14DualRefCountedINS_12_GLOBAL__N_121OldWeightedRoundRobin32WeightedRoundRobinSubchannelListEE9WeakUnrefERKNS_13DebugLocationEPKc(ptr noundef nonnull align 8 dereferenceable(16) %1, ptr noundef nonnull align 1 dereferenceable(1) %2, ptr noundef %3)
  br label %if.end

if.end:                                           ; preds = %if.then, %entry
  ret void
}

; Function Attrs: mustprogress nounwind uwtable
define linkonce_odr void @_ZN9grpc_core13DebugLocationC2EPKci(ptr noundef nonnull align 1 dereferenceable(1) %this, ptr noundef %0, i32 noundef %1) unnamed_addr #5 comdat align 2 {
entry:
  %this.addr = alloca ptr, align 8
  %.addr = alloca ptr, align 8
  %.addr1 = alloca i32, align 4
  store ptr %this, ptr %this.addr, align 8
  store ptr %0, ptr %.addr, align 8
  store i32 %1, ptr %.addr1, align 4
  ret void
}

; Function Attrs: mustprogress nounwind uwtable
define internal void @_ZN9grpc_core14SubchannelDataINS_12_GLOBAL__N_121OldWeightedRoundRobin32WeightedRoundRobinSubchannelListENS2_32WeightedRoundRobinSubchannelDataEE7WatcherD2Ev(ptr noundef nonnull align 8 dereferenceable(24) %this) unnamed_addr #5 align 2 personality ptr @__gxx_personality_v0 {
entry:
  %this.addr = alloca ptr, align 8
  %ref.tmp = alloca %"class.grpc_core::DebugLocation", align 1
  store ptr %this, ptr %this.addr, align 8
  %this1 = load ptr, ptr %this.addr, align 8
  store ptr getelementptr inbounds ({ [6 x ptr] }, ptr @_ZTVN9grpc_core14SubchannelDataINS_12_GLOBAL__N_121OldWeightedRoundRobin32WeightedRoundRobinSubchannelListENS2_32WeightedRoundRobinSubchannelDataEE7WatcherE, i32 0, i32 0, i32 2), ptr %this1, align 8
  %subchannel_list_ = getelementptr inbounds %"class.grpc_core::SubchannelData<grpc_core::(anonymous namespace)::OldWeightedRoundRobin::WeightedRoundRobinSubchannelList, grpc_core::(anonymous namespace)::OldWeightedRoundRobin::WeightedRoundRobinSubchannelData>::Watcher", ptr %this1, i32 0, i32 2
  invoke void @_ZN9grpc_core13DebugLocationC2EPKci(ptr noundef nonnull align 1 dereferenceable(1) %ref.tmp, ptr noundef @.str.33, i32 noundef 141)
          to label %invoke.cont unwind label %terminate.lpad

invoke.cont:                                      ; preds = %entry
  invoke void @_ZN9grpc_core17WeakRefCountedPtrINS_12_GLOBAL__N_121OldWeightedRoundRobin32WeightedRoundRobinSubchannelListEE5resetERKNS_13DebugLocationEPKcPS3_(ptr noundef nonnull align 8 dereferenceable(8) %subchannel_list_, ptr noundef nonnull align 1 dereferenceable(1) %ref.tmp, ptr noundef @.str.85, ptr noundef null)
          to label %invoke.cont2 unwind label %terminate.lpad

invoke.cont2:                                     ; preds = %invoke.cont
  %subchannel_list_3 = getelementptr inbounds %"class.grpc_core::SubchannelData<grpc_core::(anonymous namespace)::OldWeightedRoundRobin::WeightedRoundRobinSubchannelList, grpc_core::(anonymous namespace)::OldWeightedRoundRobin::WeightedRoundRobinSubchannelData>::Watcher", ptr %this1, i32 0, i32 2
  call void @_ZN9grpc_core17WeakRefCountedPtrINS_12_GLOBAL__N_121OldWeightedRoundRobin32WeightedRoundRobinSubchannelListEED2Ev(ptr noundef nonnull align 8 dereferenceable(8) %subchannel_list_3) #3
  call void @_ZN9grpc_core19SubchannelInterface33ConnectivityStateWatcherInterfaceD2Ev(ptr noundef nonnull align 8 dereferenceable(8) %this1) #3
  ret void

terminate.lpad:                                   ; preds = %invoke.cont, %entry
  %0 = landingpad { ptr, i32 }
          catch ptr null
  %1 = extractvalue { ptr, i32 } %0, 0
  call void @__clang_call_terminate(ptr %1) #18
  unreachable
}